target datalayout = "e-m:e-p270:32:32-p271:32:32-p272:64:64-i64:64-i128:128-f80:128-n8:16:32:64-S128"
target triple = "x86_64-pc-linux-gnu"

%struct._object = type { %union.anon, ptr }
%union.anon = type { i64 }
%struct.z_stream_s = type { ptr, i32, i64, ptr, i32, i64, ptr, ptr, ptr, ptr, ptr, i32, i64, i64 }
%struct.anon = type { i32, i32 }
%struct.compobject = type { %struct._object, %struct.z_stream_s, ptr, ptr, i8, i8, ptr, ptr }

@PyExc_MemoryError = external global ptr, align 8
@.str.33 = private unnamed_addr constant [24 x i8] c"Unable to allocate lock\00", align 1

; Function Attrs: alwaysinline nounwind uwtable
define internal i32 @_Py_IsImmortal(ptr noundef %0) #5 {
  %2 = alloca ptr, align 8
  store ptr %0, ptr %2, align 8, !tbaa !3
  %3 = load ptr, ptr %2, align 8, !tbaa !3
  %4 = getelementptr inbounds nuw %struct._object, ptr %3, i32 0, i32 0
  %5 = getelementptr inbounds nuw %struct.anon, ptr %4, i32 0, i32 0
  %6 = load i32, ptr %5, align 8, !tbaa !60
  %7 = icmp slt i32 %6, 0
  %8 = zext i1 %7 to i32
  ret i32 %8
}

; Function Attrs: alwaysinline nounwind uwtable
define internal void @Py_DECREF(ptr noundef %0) #5 {
  %2 = alloca ptr, align 8
  store ptr %0, ptr %2, align 8, !tbaa !3
  %3 = load ptr, ptr %2, align 8, !tbaa !3
  %4 = call i32 @_Py_IsImmortal(ptr noundef %3)
  %5 = icmp ne i32 %4, 0
  br i1 %5, label %6, label %7

6:                                                ; preds = %1
  br label %16

7:                                                ; preds = %1
  %8 = load ptr, ptr %2, align 8, !tbaa !3
  %9 = getelementptr inbounds nuw %struct._object, ptr %8, i32 0, i32 0
  %10 = getelementptr inbounds nuw %struct.anon, ptr %9, i32 0, i32 0
  %11 = load i32, ptr %10, align 8, !tbaa !60
  %12 = add i32 %11, -1
  store i32 %12, ptr %10, align 8, !tbaa !60
  %13 = icmp eq i32 %12, 0
  br i1 %13, label %14, label %16

14:                                               ; preds = %7
  %15 = load ptr, ptr %2, align 8, !tbaa !3
  call void @_Py_Dealloc(ptr noundef %15)
  br label %16

16:                                               ; preds = %6, %14, %7
  ret void
}

; Function Attrs: nounwind uwtable
define internal ptr @newcompobject(ptr noundef %0) #0 {
  %2 = alloca ptr, align 8
  %3 = alloca ptr, align 8
  %4 = alloca ptr, align 8
  %5 = alloca i32, align 4
  store ptr %0, ptr %3, align 8, !tbaa !19
  call void @llvm.lifetime.start.p0(i64 8, ptr %4) #7
  %6 = load ptr, ptr %3, align 8, !tbaa !19
  %7 = call ptr @_PyObject_New(ptr noundef %6)
  store ptr %7, ptr %4, align 8, !tbaa !8
  %8 = load ptr, ptr %4, align 8, !tbaa !8
  %9 = icmp eq ptr %8, null
  br i1 %9, label %10, label %11

10:                                               ; preds = %1
  store ptr null, ptr %2, align 8
  store i32 1, ptr %5, align 4
  br label %50

11:                                               ; preds = %1
  %12 = load ptr, ptr %4, align 8, !tbaa !8
  %13 = getelementptr inbounds nuw %struct.compobject, ptr %12, i32 0, i32 4
  store i8 0, ptr %13, align 8, !tbaa !72
  %14 = load ptr, ptr %4, align 8, !tbaa !8
  %15 = getelementptr inbounds nuw %struct.compobject, ptr %14, i32 0, i32 5
  store i8 0, ptr %15, align 1, !tbaa !71
  %16 = load ptr, ptr %4, align 8, !tbaa !8
  %17 = getelementptr inbounds nuw %struct.compobject, ptr %16, i32 0, i32 6
  store ptr null, ptr %17, align 8, !tbaa !73
  %18 = call ptr @Py_GetConstant(i32 noundef 8)
  %19 = load ptr, ptr %4, align 8, !tbaa !8
  %20 = getelementptr inbounds nuw %struct.compobject, ptr %19, i32 0, i32 2
  store ptr %18, ptr %20, align 8, !tbaa !74
  %21 = load ptr, ptr %4, align 8, !tbaa !8
  %22 = getelementptr inbounds nuw %struct.compobject, ptr %21, i32 0, i32 2
  %23 = load ptr, ptr %22, align 8, !tbaa !74
  %24 = icmp eq ptr %23, null
  br i1 %24, label %25, label %27

25:                                               ; preds = %11
  %26 = load ptr, ptr %4, align 8, !tbaa !8
  call void @Py_DECREF(ptr noundef %26)
  store ptr null, ptr %2, align 8
  store i32 1, ptr %5, align 4
  br label %50

27:                                               ; preds = %11
  %28 = call ptr @Py_GetConstant(i32 noundef 8)
  %29 = load ptr, ptr %4, align 8, !tbaa !8
  %30 = getelementptr inbounds nuw %struct.compobject, ptr %29, i32 0, i32 3
  store ptr %28, ptr %30, align 8, !tbaa !75
  %31 = load ptr, ptr %4, align 8, !tbaa !8
  %32 = getelementptr inbounds nuw %struct.compobject, ptr %31, i32 0, i32 3
  %33 = load ptr, ptr %32, align 8, !tbaa !75
  %34 = icmp eq ptr %33, null
  br i1 %34, label %35, label %37

35:                                               ; preds = %27
  %36 = load ptr, ptr %4, align 8, !tbaa !8
  call void @Py_DECREF(ptr noundef %36)
  store ptr null, ptr %2, align 8
  store i32 1, ptr %5, align 4
  br label %50

37:                                               ; preds = %27
  %38 = call ptr @PyThread_allocate_lock()
  %39 = load ptr, ptr %4, align 8, !tbaa !8
  %40 = getelementptr inbounds nuw %struct.compobject, ptr %39, i32 0, i32 7
  store ptr %38, ptr %40, align 8, !tbaa !76
  %41 = load ptr, ptr %4, align 8, !tbaa !8
  %42 = getelementptr inbounds nuw %struct.compobject, ptr %41, i32 0, i32 7
  %43 = load ptr, ptr %42, align 8, !tbaa !76
  %44 = icmp eq ptr %43, null
  br i1 %44, label %45, label %48

45:                                               ; preds = %37
  %46 = load ptr, ptr %4, align 8, !tbaa !8
  call void @Py_DECREF(ptr noundef %46)
  %47 = load ptr, ptr @PyExc_MemoryError, align 8, !tbaa !3
  call void @PyErr_SetString(ptr noundef %47, ptr noundef @.str.33)
  store ptr null, ptr %2, align 8
  store i32 1, ptr %5, align 4
  br label %50

48:                                               ; preds = %37
  %49 = load ptr, ptr %4, align 8, !tbaa !8
  store ptr %49, ptr %2, align 8
  store i32 1, ptr %5, align 4
  br label %50

50:                                               ; preds = %48, %45, %35, %25, %10
  call void @llvm.lifetime.end.p0(i64 8, ptr %4) #7
  %51 = load ptr, ptr %2, align 8
  ret ptr %51
}