; Function Attrs: nounwind uwtable
define internal fastcc ptr @newcompobject(ptr noundef %0) unnamed_addr #0 {
  %2 = tail call ptr @_PyObject_New(ptr noundef %0) #7
  %3 = icmp eq ptr %2, null
  br i1 %3, label %Py_DECREF.exit20, label %4

4:                                                ; preds = %1
  %5 = getelementptr inbounds nuw i8, ptr %2, i64 144
  store i8 0, ptr %5, align 8, !tbaa !63
  %6 = getelementptr inbounds nuw i8, ptr %2, i64 145
  store i8 0, ptr %6, align 1, !tbaa !55
  %7 = getelementptr inbounds nuw i8, ptr %2, i64 152
  store ptr null, ptr %7, align 8, !tbaa !60
  %8 = tail call ptr @Py_GetConstant(i32 noundef 8) #7
  %9 = getelementptr inbounds nuw i8, ptr %2, i64 128
  store ptr %8, ptr %9, align 8, !tbaa !64
  %10 = icmp eq ptr %8, null
  br i1 %10, label %11, label %17

11:                                               ; preds = %4
  %12 = load i32, ptr %2, align 8, !tbaa !14
  %.not.i19 = icmp sgt i32 %12, -1
  br i1 %.not.i19, label %13, label %Py_DECREF.exit20

13:                                               ; preds = %11
  %14 = add nsw i32 %12, -1
  store i32 %14, ptr %2, align 8, !tbaa !14
  %15 = icmp eq i32 %14, 0
  br i1 %15, label %16, label %Py_DECREF.exit20

16:                                               ; preds = %13
  tail call void @_Py_Dealloc(ptr noundef nonnull %2) #7
  br label %Py_DECREF.exit20

17:                                               ; preds = %4
  %18 = tail call ptr @Py_GetConstant(i32 noundef 8) #7
  %19 = getelementptr inbounds nuw i8, ptr %2, i64 136
  store ptr %18, ptr %19, align 8, !tbaa !65
  %20 = icmp eq ptr %18, null
  br i1 %20, label %21, label %27

21:                                               ; preds = %17
  %22 = load i32, ptr %2, align 8, !tbaa !14
  %.not.i17 = icmp sgt i32 %22, -1
  br i1 %.not.i17, label %23, label %Py_DECREF.exit20

23:                                               ; preds = %21
  %24 = add nsw i32 %22, -1
  store i32 %24, ptr %2, align 8, !tbaa !14
  %25 = icmp eq i32 %24, 0
  br i1 %25, label %26, label %Py_DECREF.exit20

26:                                               ; preds = %23
  tail call void @_Py_Dealloc(ptr noundef nonnull %2) #7
  br label %Py_DECREF.exit20

27:                                               ; preds = %17
  %28 = tail call ptr @PyThread_allocate_lock() #7
  %29 = getelementptr inbounds nuw i8, ptr %2, i64 160
  store ptr %28, ptr %29, align 8, !tbaa !66
  %30 = icmp eq ptr %28, null
  br i1 %30, label %31, label %Py_DECREF.exit20

31:                                               ; preds = %27
  %32 = load i32, ptr %2, align 8, !tbaa !14
  %.not.i = icmp sgt i32 %32, -1
  br i1 %.not.i, label %33, label %Py_DECREF.exit

33:                                               ; preds = %31
  %34 = add nsw i32 %32, -1
  store i32 %34, ptr %2, align 8, !tbaa !14
  %35 = icmp eq i32 %34, 0
  br i1 %35, label %36, label %Py_DECREF.exit

36:                                               ; preds = %33
  tail call void @_Py_Dealloc(ptr noundef nonnull %2) #7
  br label %Py_DECREF.exit

Py_DECREF.exit:                                   ; preds = %31, %33, %36
  %37 = load ptr, ptr @PyExc_MemoryError, align 8, !tbaa !15
  tail call void @PyErr_SetString(ptr noundef %37, ptr noundef nonnull @.str.33) #7
  br label %Py_DECREF.exit20

Py_DECREF.exit20:                                 ; preds = %26, %23, %21, %16, %13, %11, %27, %1, %Py_DECREF.exit
  %.0 = phi ptr [ null, %Py_DECREF.exit ], [ null, %1 ], [ %2, %27 ], [ null, %11 ], [ null, %13 ], [ null, %16 ], [ null, %21 ], [ null, %23 ], [ null, %26 ]
  ret ptr %.0
}